target datalayout = "e-m:e-p270:32:32-p271:32:32-p272:64:64-i64:64-i128:128-f80:128-n8:16:32:64-S128"
target triple = "x86_64-pc-linux-gnu"

%"class.LightGBM::Metadata" = type <{ %"class.std::__cxx11::basic_string", i32, i32, i32, [4 x i8], %"class.std::vector", %"class.std::vector", %"class.std::vector.3", %"class.std::vector.8", %"class.std::vector.3", %"class.std::vector", i32, [4 x i8], i64, %"class.std::vector.13", %"class.std::vector.3", %"class.std::mutex", i8, i8, i8, i8, [4 x i8] }>
%"class.std::__cxx11::basic_string" = type { %"struct.std::__cxx11::basic_string<char>::_Alloc_hider", i64, %union.anon }
%"struct.std::__cxx11::basic_string<char>::_Alloc_hider" = type { ptr }
%union.anon = type { i64, [8 x i8] }
%"class.std::vector.8" = type { %"struct.std::_Vector_base.9" }
%"struct.std::_Vector_base.9" = type { %"struct.std::_Vector_base<std::__cxx11::basic_string<char>, std::allocator<std::__cxx11::basic_string<char>>>::_Vector_impl" }
%"struct.std::_Vector_base<std::__cxx11::basic_string<char>, std::allocator<std::__cxx11::basic_string<char>>>::_Vector_impl" = type { %"struct.std::_Vector_base<std::__cxx11::basic_string<char>, std::allocator<std::__cxx11::basic_string<char>>>::_Vector_impl_data" }
%"struct.std::_Vector_base<std::__cxx11::basic_string<char>, std::allocator<std::__cxx11::basic_string<char>>>::_Vector_impl_data" = type { ptr, ptr, ptr }
%"class.std::vector" = type { %"struct.std::_Vector_base" }
%"struct.std::_Vector_base" = type { %"struct.std::_Vector_base<float, std::allocator<float>>::_Vector_impl" }
%"struct.std::_Vector_base<float, std::allocator<float>>::_Vector_impl" = type { %"struct.std::_Vector_base<float, std::allocator<float>>::_Vector_impl_data" }
%"struct.std::_Vector_base<float, std::allocator<float>>::_Vector_impl_data" = type { ptr, ptr, ptr }
%"class.std::vector.13" = type { %"struct.std::_Vector_base.14" }
%"struct.std::_Vector_base.14" = type { %"struct.std::_Vector_base<double, std::allocator<double>>::_Vector_impl" }
%"struct.std::_Vector_base<double, std::allocator<double>>::_Vector_impl" = type { %"struct.std::_Vector_base<double, std::allocator<double>>::_Vector_impl_data" }
%"struct.std::_Vector_base<double, std::allocator<double>>::_Vector_impl_data" = type { ptr, ptr, ptr }
%"class.std::vector.3" = type { %"struct.std::_Vector_base.4" }
%"struct.std::_Vector_base.4" = type { %"struct.std::_Vector_base<int, std::allocator<int>>::_Vector_impl" }
%"struct.std::_Vector_base<int, std::allocator<int>>::_Vector_impl" = type { %"struct.std::_Vector_base<int, std::allocator<int>>::_Vector_impl_data" }
%"struct.std::_Vector_base<int, std::allocator<int>>::_Vector_impl_data" = type { ptr, ptr, ptr }
%"class.std::mutex" = type { %"class.std::__mutex_base" }
%"class.std::__mutex_base" = type { %union.pthread_mutex_t }
%union.pthread_mutex_t = type { %struct.__pthread_mutex_s }
%struct.__pthread_mutex_s = type { i32, i32, i32, i32, i32, i16, i16, %struct.__pthread_internal_list }
%struct.__pthread_internal_list = type { ptr, ptr }

@.str.41 = private unnamed_addr constant [20 x i8] c"Passed null queries\00", align 1
@.str.42 = private unnamed_addr constant [50 x i8] c"Inserting query data into dataset with no queries\00", align 1
@.str.43 = private unnamed_addr constant [45 x i8] c"Inserted query data is too large for dataset\00", align 1

; Function Attrs: mustprogress nounwind uwtable
define linkonce_odr noundef ptr @_ZNKSt6vectorIiSaIiEE11_M_data_ptrIiEEPT_S4_(ptr noundef nonnull align 8 dereferenceable(24) %0, ptr noundef %1) #4 comdat align 2 {
  %3 = alloca ptr, align 8
  %4 = alloca ptr, align 8
  store ptr %0, ptr %3, align 8, !tbaa !50
  store ptr %1, ptr %4, align 8, !tbaa !119
  %5 = load ptr, ptr %4, align 8, !tbaa !119
  ret ptr %5
}

; Function Attrs: mustprogress nounwind uwtable
define linkonce_odr noundef ptr @_ZNSt6vectorIiSaIiEE4dataEv(ptr noundef nonnull align 8 dereferenceable(24) %0) #4 comdat align 2 {
  %2 = alloca ptr, align 8
  store ptr %0, ptr %2, align 8, !tbaa !50
  %3 = load ptr, ptr %2, align 8
  %4 = getelementptr inbounds nuw %"struct.std::_Vector_base.4", ptr %3, i32 0, i32 0
  %5 = getelementptr inbounds nuw %"struct.std::_Vector_base<int, std::allocator<int>>::_Vector_impl_data", ptr %4, i32 0, i32 0
  %6 = load ptr, ptr %5, align 8, !tbaa !111
  %7 = call noundef ptr @_ZNKSt6vectorIiSaIiEE11_M_data_ptrIiEEPT_S4_(ptr noundef nonnull align 8 dereferenceable(24) %3, ptr noundef %6) #3
  ret ptr %7
}

; Function Attrs: mustprogress nounwind uwtable
define linkonce_odr noundef i64 @_ZNKSt6vectorIiSaIiEE4sizeEv(ptr noundef nonnull align 8 dereferenceable(24) %0) #4 comdat align 2 {
  %2 = alloca ptr, align 8
  store ptr %0, ptr %2, align 8, !tbaa !50
  %3 = load ptr, ptr %2, align 8
  %4 = getelementptr inbounds nuw %"struct.std::_Vector_base.4", ptr %3, i32 0, i32 0
  %5 = getelementptr inbounds nuw %"struct.std::_Vector_base<int, std::allocator<int>>::_Vector_impl_data", ptr %4, i32 0, i32 1
  %6 = load ptr, ptr %5, align 8, !tbaa !112
  %7 = getelementptr inbounds nuw %"struct.std::_Vector_base.4", ptr %3, i32 0, i32 0
  %8 = getelementptr inbounds nuw %"struct.std::_Vector_base<int, std::allocator<int>>::_Vector_impl_data", ptr %7, i32 0, i32 0
  %9 = load ptr, ptr %8, align 8, !tbaa !111
  %10 = ptrtoint ptr %6 to i64
  %11 = ptrtoint ptr %9 to i64
  %12 = sub i64 %10, %11
  %13 = sdiv exact i64 %12, 4
  ret i64 %13
}

; Function Attrs: mustprogress uwtable
define void @_ZN8LightGBM8Metadata13InsertQueriesEPKiii(ptr noundef nonnull align 8 dereferenceable(300) %0, ptr noundef %1, i32 noundef %2, i32 noundef %3) #8 align 2 {
  %5 = alloca ptr, align 8
  %6 = alloca ptr, align 8
  %7 = alloca i32, align 4
  %8 = alloca i32, align 4
  store ptr %0, ptr %5, align 8, !tbaa !4
  store ptr %1, ptr %6, align 8, !tbaa !119
  store i32 %2, ptr %7, align 4, !tbaa !103
  store i32 %3, ptr %8, align 4, !tbaa !103
  %9 = load ptr, ptr %5, align 8
  %10 = load ptr, ptr %6, align 8, !tbaa !119
  %11 = icmp ne ptr %10, null
  br i1 %11, label %13, label %12

12:                                               ; preds = %4
  call void (ptr, ...) @_ZN8LightGBM3Log5FatalEPKcz(ptr noundef @.str.41)
  br label %13

13:                                               ; preds = %12, %4
  %14 = getelementptr inbounds nuw %"class.LightGBM::Metadata", ptr %9, i32 0, i32 15
  %15 = call noundef i64 @_ZNKSt6vectorIiSaIiEE4sizeEv(ptr noundef nonnull align 8 dereferenceable(24) %14) #3
  %16 = icmp ule i64 %15, 0
  br i1 %16, label %17, label %18

17:                                               ; preds = %13
  call void (ptr, ...) @_ZN8LightGBM3Log5FatalEPKcz(ptr noundef @.str.42)
  br label %18

18:                                               ; preds = %17, %13
  %19 = load i32, ptr %7, align 4, !tbaa !103
  %20 = load i32, ptr %8, align 4, !tbaa !103
  %21 = add nsw i32 %19, %20
  %22 = sext i32 %21 to i64
  %23 = getelementptr inbounds nuw %"class.LightGBM::Metadata", ptr %9, i32 0, i32 15
  %24 = call noundef i64 @_ZNKSt6vectorIiSaIiEE4sizeEv(ptr noundef nonnull align 8 dereferenceable(24) %23) #3
  %25 = icmp ugt i64 %22, %24
  br i1 %25, label %26, label %27

26:                                               ; preds = %18
  call void (ptr, ...) @_ZN8LightGBM3Log5FatalEPKcz(ptr noundef @.str.43)
  br label %27

27:                                               ; preds = %26, %18
  %28 = getelementptr inbounds nuw %"class.LightGBM::Metadata", ptr %9, i32 0, i32 15
  %29 = call noundef ptr @_ZNSt6vectorIiSaIiEE4dataEv(ptr noundef nonnull align 8 dereferenceable(24) %28) #3
  %30 = load i32, ptr %7, align 4, !tbaa !103
  %31 = sext i32 %30 to i64
  %32 = getelementptr inbounds i32, ptr %29, i64 %31
  %33 = load ptr, ptr %6, align 8, !tbaa !119
  %34 = load i32, ptr %8, align 4, !tbaa !103
  %35 = sext i32 %34 to i64
  %36 = mul i64 4, %35
  call void @llvm.memcpy.p0.p0.i64(ptr align 4 %32, ptr align 4 %33, i64 %36, i1 false)
  %37 = getelementptr inbounds nuw %"class.LightGBM::Metadata", ptr %9, i32 0, i32 19
  store i8 0, ptr %37, align 2, !tbaa !45
  ret void
}