; Function Attrs: mustprogress uwtable
define void @_ZN8LightGBM8Metadata13InsertQueriesEPKiii(ptr noundef nonnull align 8 captures(none) dereferenceable(300) initializes((298, 299)) %0, ptr noundef readonly %1, i32 noundef %2, i32 noundef %3) local_unnamed_addr #8 align 2 {
  %.not = icmp eq ptr %1, null
  br i1 %.not, label %5, label %6

5:                                                ; preds = %4
  tail call void (ptr, ...) @_ZN8LightGBM3Log5FatalEPKcz(ptr noundef nonnull @.str.41)
  br label %6

6:                                                ; preds = %5, %4
  %7 = getelementptr inbounds nuw i8, ptr %0, i64 232
  %8 = getelementptr inbounds nuw i8, ptr %0, i64 240
  %9 = load ptr, ptr %8, align 8, !tbaa !61
  %10 = load ptr, ptr %7, align 8, !tbaa !60
  %11 = icmp eq ptr %9, %10
  br i1 %11, label %12, label %13

12:                                               ; preds = %6
  tail call void (ptr, ...) @_ZN8LightGBM3Log5FatalEPKcz(ptr noundef nonnull @.str.42)
  %.pre = load ptr, ptr %8, align 8, !tbaa !61
  %.pre6 = load ptr, ptr %7, align 8, !tbaa !60
  br label %13

13:                                               ; preds = %12, %6
  %14 = phi ptr [ %.pre6, %12 ], [ %10, %6 ]
  %15 = phi ptr [ %.pre, %12 ], [ %9, %6 ]
  %16 = add nsw i32 %3, %2
  %17 = sext i32 %16 to i64
  %18 = ptrtoint ptr %15 to i64
  %19 = ptrtoint ptr %14 to i64
  %20 = sub i64 %18, %19
  %21 = ashr exact i64 %20, 2
  %22 = icmp ult i64 %21, %17
  br i1 %22, label %23, label %24

23:                                               ; preds = %13
  tail call void (ptr, ...) @_ZN8LightGBM3Log5FatalEPKcz(ptr noundef nonnull @.str.43)
  %.pre7 = load ptr, ptr %7, align 8, !tbaa !60
  br label %24

24:                                               ; preds = %23, %13
  %25 = phi ptr [ %.pre7, %23 ], [ %14, %13 ]
  %26 = sext i32 %2 to i64
  %27 = getelementptr inbounds i32, ptr %25, i64 %26
  %28 = sext i32 %3 to i64
  %29 = shl nsw i64 %28, 2
  tail call void @llvm.memcpy.p0.p0.i64(ptr align 4 %27, ptr align 4 %1, i64 %29, i1 false)
  %30 = getelementptr inbounds nuw i8, ptr %0, i64 298
  store i8 0, ptr %30, align 2, !tbaa !63
  ret void
}